target datalayout = "e-m:e-p270:32:32-p271:32:32-p272:64:64-i64:64-i128:128-f80:128-n8:16:32:64-S128"
target triple = "x86_64-pc-linux-gnu"

%struct.archive_write = type { %struct.archive, i32, i64, i64, ptr, i64, ptr, ptr, ptr, ptr, ptr, i32, i32, ptr, ptr, ptr, ptr, ptr, ptr, ptr, ptr, ptr, ptr, ptr, ptr, ptr, ptr }
%struct.archive = type { i32, i32, ptr, i32, ptr, i32, i32, ptr, %struct.archive_string, ptr, i32, i32, ptr, ptr, i64, i64, i64, i8, i64 }
%struct.archive_string = type { ptr, i64, i64 }

@.str.2 = private unnamed_addr constant [38 x i8] c"archive_write_set_bytes_in_last_block\00", align 1

; Function Attrs: nounwind uwtable
define dso_local i32 @archive_write_set_bytes_in_last_block(ptr noundef %0, i32 noundef %1) #0 {
  %3 = alloca i32, align 4
  %4 = alloca ptr, align 8
  %5 = alloca i32, align 4
  %6 = alloca ptr, align 8
  %7 = alloca i32, align 4
  %8 = alloca i32, align 4
  store ptr %0, ptr %4, align 8, !tbaa !26
  store i32 %1, ptr %5, align 4, !tbaa !28
  call void @llvm.lifetime.start.p0(i64 8, ptr %6) #9
  %9 = load ptr, ptr %4, align 8, !tbaa !26
  store ptr %9, ptr %6, align 8, !tbaa !4
  br label %10

10:                                               ; preds = %2
  call void @llvm.lifetime.start.p0(i64 4, ptr %7) #9
  %11 = load ptr, ptr %6, align 8, !tbaa !4
  %12 = getelementptr inbounds nuw %struct.archive_write, ptr %11, i32 0, i32 0
  %13 = call i32 @__archive_check_magic(ptr noundef %12, i32 noundef -1329217314, i32 noundef 32767, ptr noundef @.str.2)
  store i32 %13, ptr %7, align 4, !tbaa !28
  %14 = load i32, ptr %7, align 4, !tbaa !28
  %15 = icmp eq i32 %14, -30
  br i1 %15, label %16, label %17

16:                                               ; preds = %10
  store i32 -30, ptr %3, align 4
  store i32 1, ptr %8, align 4
  br label %18

17:                                               ; preds = %10
  store i32 0, ptr %8, align 4
  br label %18

18:                                               ; preds = %17, %16
  call void @llvm.lifetime.end.p0(i64 4, ptr %7) #9
  %19 = load i32, ptr %8, align 4
  switch i32 %19, label %26 [
    i32 0, label %20
  ]

20:                                               ; preds = %18
  br label %21

21:                                               ; preds = %20
  br label %22

22:                                               ; preds = %21
  %23 = load i32, ptr %5, align 4, !tbaa !28
  %24 = load ptr, ptr %6, align 8, !tbaa !4
  %25 = getelementptr inbounds nuw %struct.archive_write, ptr %24, i32 0, i32 12
  store i32 %23, ptr %25, align 4, !tbaa !22
  store i32 0, ptr %3, align 4
  store i32 1, ptr %8, align 4
  br label %26

26:                                               ; preds = %22, %18
  call void @llvm.lifetime.end.p0(i64 8, ptr %6) #9
  %27 = load i32, ptr %3, align 4
  ret i32 %27
}