; Function Attrs: nounwind uwtable
define dso_local range(i32 -30, 1) i32 @archive_write_set_bytes_in_last_block(ptr noundef %0, i32 noundef %1) local_unnamed_addr #3 {
  %3 = tail call i32 @__archive_check_magic(ptr noundef %0, i32 noundef -1329217314, i32 noundef 32767, ptr noundef nonnull @.str.2) #13
  %.not = icmp eq i32 %3, -30
  br i1 %.not, label %6, label %4

4:                                                ; preds = %2
  %5 = getelementptr inbounds nuw i8, ptr %0, i64 228
  store i32 %1, ptr %5, align 4, !tbaa !20
  br label %6

6:                                                ; preds = %2, %4
  %.1 = phi i32 [ 0, %4 ], [ -30, %2 ]
  ret i32 %.1
}